; Function Attrs: mustprogress uwtable
define void @cvLaplace(ptr noundef %0, ptr noundef %1, i32 noundef %2) local_unnamed_addr #0 personality ptr @__gxx_personality_v0 {
  %4 = alloca %"class.cv::Mat", align 8
  %5 = alloca %"class.cv::Mat", align 8
  %6 = alloca %"class.std::__cxx11::basic_string", align 8
  %7 = alloca %"class.std::allocator", align 1
  %8 = alloca %"class.cv::_InputArray", align 8
  %9 = alloca %"class.cv::_OutputArray", align 8
  call void @_ZN2cv10cvarrToMatEPKvbbiPNS_10AutoBufferIdLm136EEE(ptr dead_on_unwind nonnull writable sret(%"class.cv::Mat") align 8 %4, ptr noundef %0, i1 noundef zeroext false, i1 noundef zeroext true, i32 noundef 0, ptr noundef null)
  invoke void @_ZN2cv10cvarrToMatEPKvbbiPNS_10AutoBufferIdLm136EEE(ptr dead_on_unwind nonnull writable sret(%"class.cv::Mat") align 8 %5, ptr noundef %1, i1 noundef zeroext false, i1 noundef zeroext true, i32 noundef 0, ptr noundef null)
          to label %10 unwind label %27

10:                                               ; preds = %3
  %11 = getelementptr inbounds i8, ptr %4, i64 64
  %12 = load ptr, ptr %11, align 8
  %13 = getelementptr inbounds i8, ptr %5, i64 64
  %14 = load ptr, ptr %13, align 8
  %15 = load <2 x i32>, ptr %12, align 4
  %16 = load <2 x i32>, ptr %14, align 4
  %17 = icmp eq <2 x i32> %15, %16
  %18 = extractelement <2 x i1> %17, i64 0
  %19 = extractelement <2 x i1> %17, i64 1
  %20 = select i1 %19, i1 %18, i1 false
  br i1 %20, label %21, label %.critedge

21:                                               ; preds = %10
  %22 = load i32, ptr %4, align 8
  %23 = load i32, ptr %5, align 8
  %24 = xor i32 %23, %22
  %25 = and i32 %24, 4088
  %26 = icmp eq i32 %25, 0
  br i1 %26, label %36, label %.critedge

27:                                               ; preds = %3
  %28 = landingpad { ptr, i32 }
          cleanup
  br label %47

.critedge:                                        ; preds = %10, %21
  call void @_ZNSaIcEC1Ev(ptr noundef nonnull align 1 dereferenceable(1) %7) #12
  invoke void @_ZNSt7__cxx1112basic_stringIcSt11char_traitsIcESaIcEEC1EPKcRKS3_(ptr noundef nonnull align 8 dereferenceable(32) %6, ptr noundef nonnull @.str.8, ptr noundef nonnull align 1 dereferenceable(1) %7)
          to label %29 unwind label %31

29:                                               ; preds = %.critedge
  invoke void @_ZN2cv5errorEiRKNSt7__cxx1112basic_stringIcSt11char_traitsIcESaIcEEEPKcS9_i(i32 noundef -215, ptr noundef nonnull align 8 dereferenceable(32) %6, ptr noundef nonnull @__func__.cvLaplace, ptr noundef nonnull @.str.1, i32 noundef 898) #13
          to label %30 unwind label %33

30:                                               ; preds = %29
  unreachable

31:                                               ; preds = %.critedge
  %32 = landingpad { ptr, i32 }
          cleanup
  br label %35

33:                                               ; preds = %29
  %34 = landingpad { ptr, i32 }
          cleanup
  call void @_ZNSt7__cxx1112basic_stringIcSt11char_traitsIcESaIcEED1Ev(ptr noundef nonnull align 8 dereferenceable(32) %6) #12
  br label %35

35:                                               ; preds = %33, %31
  %.pn = phi { ptr, i32 } [ %34, %33 ], [ %32, %31 ]
  call void @_ZNSaIcED1Ev(ptr noundef nonnull align 1 dereferenceable(1) %7) #12
  br label %46

36:                                               ; preds = %21
  %37 = getelementptr inbounds i8, ptr %8, i64 16
  store i32 0, ptr %37, align 8
  %38 = getelementptr inbounds i8, ptr %8, i64 20
  store i32 0, ptr %38, align 4
  store i32 16842752, ptr %8, align 8
  %39 = getelementptr inbounds i8, ptr %8, i64 8
  store ptr %4, ptr %39, align 8
  %40 = getelementptr inbounds i8, ptr %9, i64 8
  %41 = getelementptr inbounds i8, ptr %9, i64 16
  store i64 0, ptr %41, align 8
  store i32 33619968, ptr %9, align 8
  store ptr %5, ptr %40, align 8
  %42 = and i32 %23, 7
  invoke void @_ZN2cv9LaplacianERKNS_11_InputArrayERKNS_12_OutputArrayEiiddi(ptr noundef nonnull align 8 dereferenceable(24) %8, ptr noundef nonnull align 8 dereferenceable(24) %9, i32 noundef %42, i32 noundef %2, double noundef 1.000000e+00, double noundef 0.000000e+00, i32 noundef 1)
          to label %43 unwind label %44

43:                                               ; preds = %36
  call void @_ZN2cv3MatD1Ev(ptr noundef nonnull align 8 dereferenceable(96) %5) #12
  call void @_ZN2cv3MatD1Ev(ptr noundef nonnull align 8 dereferenceable(96) %4) #12
  ret void

44:                                               ; preds = %36
  %45 = landingpad { ptr, i32 }
          cleanup
  br label %46

46:                                               ; preds = %44, %35
  %.pn9.pn = phi { ptr, i32 } [ %.pn, %35 ], [ %45, %44 ]
  call void @_ZN2cv3MatD1Ev(ptr noundef nonnull align 8 dereferenceable(96) %5) #12
  br label %47

47:                                               ; preds = %46, %27
  %.pn9.pn.pn = phi { ptr, i32 } [ %.pn9.pn, %46 ], [ %28, %27 ]
  call void @_ZN2cv3MatD1Ev(ptr noundef nonnull align 8 dereferenceable(96) %4) #12
  resume { ptr, i32 } %.pn9.pn.pn
}